; ModuleID = 'source-C-CXX/9/674.c'
source_filename = "source-C-CXX/9/674.c"
target datalayout = "e-m:e-p270:32:32-p271:32:32-p272:64:64-i64:64-f80:128-n8:16:32:64-S128"
target triple = "x86_64-pc-linux-gnu"

@.str = private unnamed_addr constant [3 x i8] c"%d\00", align 1
@.str.1 = private unnamed_addr constant [4 x i8] c"%d\0A\00", align 1

; Function Attrs: nofree nounwind sspstrong uwtable
define dso_local i32 @main() local_unnamed_addr #0 {
  %1 = alloca [100 x i32], align 16
  %2 = alloca [100 x i32], align 16
  %3 = alloca i32, align 4
  %4 = bitcast [100 x i32]* %1 to i8*
  call void @llvm.lifetime.start.p0i8(i64 400, i8* nonnull %4) #5
  call void @llvm.memset.p0i8.i64(i8* noundef nonnull align 16 dereferenceable(400) %4, i8 0, i64 400, i1 false)
  %5 = bitcast [100 x i32]* %2 to i8*
  call void @llvm.lifetime.start.p0i8(i64 400, i8* nonnull %5) #5
  call void @llvm.memset.p0i8.i64(i8* noundef nonnull align 16 dereferenceable(400) %5, i8 0, i64 400, i1 false)
  %6 = bitcast i32* %3 to i8*
  call void @llvm.lifetime.start.p0i8(i64 4, i8* nonnull %6) #5
  %7 = call i32 (i8*, ...) @__isoc99_scanf(i8* getelementptr inbounds ([3 x i8], [3 x i8]* @.str, i64 0, i64 0), i32* nonnull %3)
  %8 = load i32, i32* %3, align 4, !tbaa !5
  %9 = icmp sgt i32 %8, 0
  br i1 %9, label %16, label %10

10:                                               ; preds = %0
  %11 = add nsw i32 %8, -1
  %12 = sext i32 %11 to i64
  %13 = getelementptr inbounds [100 x i32], [100 x i32]* %2, i64 0, i64 %12
  store i32 1, i32* %13, align 4, !tbaa !5
  %14 = getelementptr inbounds [100 x i32], [100 x i32]* %2, i64 0, i64 0
  %15 = load i32, i32* %14, align 16, !tbaa !5
  br label %151

16:                                               ; preds = %0, %16
  %17 = phi i64 [ %20, %16 ], [ 0, %0 ]
  %18 = getelementptr inbounds [100 x i32], [100 x i32]* %1, i64 0, i64 %17
  %19 = call i32 (i8*, ...) @__isoc99_scanf(i8* getelementptr inbounds ([3 x i8], [3 x i8]* @.str, i64 0, i64 0), i32* nonnull %18)
  %20 = add nuw nsw i64 %17, 1
  %21 = load i32, i32* %3, align 4, !tbaa !5
  %22 = sext i32 %21 to i64
  %23 = icmp slt i64 %20, %22
  br i1 %23, label %16, label %24, !llvm.loop !9

24:                                               ; preds = %16
  %25 = add nsw i32 %21, -1
  %26 = sext i32 %25 to i64
  %27 = getelementptr inbounds [100 x i32], [100 x i32]* %2, i64 0, i64 %26
  store i32 1, i32* %27, align 4, !tbaa !5
  %28 = icmp sgt i32 %21, 1
  br i1 %28, label %32, label %29

29:                                               ; preds = %24
  %30 = getelementptr inbounds [100 x i32], [100 x i32]* %2, i64 0, i64 0
  %31 = load i32, i32* %30, align 16, !tbaa !5
  br label %151

32:                                               ; preds = %24
  %33 = zext i32 %21 to i64
  %34 = add nsw i64 %33, -1
  %35 = add nsw i32 %21, -2
  %36 = zext i32 %35 to i64
  br label %37

37:                                               ; preds = %32, %58
  %38 = phi i64 [ %36, %32 ], [ %62, %58 ]
  %39 = icmp slt i64 %38, %26
  br i1 %39, label %40, label %58

40:                                               ; preds = %37
  %41 = getelementptr inbounds [100 x i32], [100 x i32]* %1, i64 0, i64 %38
  %42 = load i32, i32* %41, align 4, !tbaa !5
  br label %43

43:                                               ; preds = %40, %54
  %44 = phi i64 [ %34, %40 ], [ %56, %54 ]
  %45 = phi i32 [ 0, %40 ], [ %55, %54 ]
  %46 = getelementptr inbounds [100 x i32], [100 x i32]* %1, i64 0, i64 %44
  %47 = load i32, i32* %46, align 4, !tbaa !5
  %48 = icmp sgt i32 %47, %42
  br i1 %48, label %54, label %49

49:                                               ; preds = %43
  %50 = getelementptr inbounds [100 x i32], [100 x i32]* %2, i64 0, i64 %44
  %51 = load i32, i32* %50, align 4, !tbaa !5
  %52 = icmp sgt i32 %51, %45
  %53 = select i1 %52, i32 %51, i32 %45
  br label %54

54:                                               ; preds = %49, %43
  %55 = phi i32 [ %45, %43 ], [ %53, %49 ]
  %56 = add nsw i64 %44, -1
  %57 = icmp sgt i64 %56, %38
  br i1 %57, label %43, label %58, !llvm.loop !11

58:                                               ; preds = %54, %37
  %59 = phi i32 [ 0, %37 ], [ %55, %54 ]
  %60 = add nsw i32 %59, 1
  %61 = getelementptr inbounds [100 x i32], [100 x i32]* %2, i64 0, i64 %38
  store i32 %60, i32* %61, align 4, !tbaa !5
  %62 = add nsw i64 %38, -1
  %63 = icmp sgt i64 %38, 0
  br i1 %63, label %37, label %64, !llvm.loop !12

64:                                               ; preds = %58
  %65 = getelementptr inbounds [100 x i32], [100 x i32]* %2, i64 0, i64 0
  %66 = load i32, i32* %65, align 16, !tbaa !5
  br i1 %28, label %67, label %151

67:                                               ; preds = %64
  %68 = zext i32 %21 to i64
  %69 = icmp ult i64 %34, 8
  br i1 %69, label %139, label %70

70:                                               ; preds = %67
  %71 = and i64 %34, -8
  %72 = or i64 %71, 1
  %73 = insertelement <4 x i32> poison, i32 %66, i32 0
  %74 = shufflevector <4 x i32> %73, <4 x i32> poison, <4 x i32> zeroinitializer
  %75 = add nsw i64 %71, -8
  %76 = lshr exact i64 %75, 3
  %77 = add nuw nsw i64 %76, 1
  %78 = and i64 %77, 1
  %79 = icmp eq i64 %75, 0
  br i1 %79, label %114, label %80

80:                                               ; preds = %70
  %81 = and i64 %77, 4611686018427387902
  br label %82

82:                                               ; preds = %82, %80
  %83 = phi i64 [ 0, %80 ], [ %109, %82 ]
  %84 = phi <4 x i32> [ %74, %80 ], [ %107, %82 ]
  %85 = phi <4 x i32> [ %74, %80 ], [ %108, %82 ]
  %86 = phi i64 [ %81, %80 ], [ %110, %82 ]
  %87 = or i64 %83, 1
  %88 = getelementptr inbounds [100 x i32], [100 x i32]* %2, i64 0, i64 %87
  %89 = bitcast i32* %88 to <4 x i32>*
  %90 = load <4 x i32>, <4 x i32>* %89, align 4, !tbaa !5
  %91 = getelementptr inbounds i32, i32* %88, i64 4
  %92 = bitcast i32* %91 to <4 x i32>*
  %93 = load <4 x i32>, <4 x i32>* %92, align 4, !tbaa !5
  %94 = icmp sgt <4 x i32> %90, %84
  %95 = icmp sgt <4 x i32> %93, %85
  %96 = select <4 x i1> %94, <4 x i32> %90, <4 x i32> %84
  %97 = select <4 x i1> %95, <4 x i32> %93, <4 x i32> %85
  %98 = or i64 %83, 9
  %99 = getelementptr inbounds [100 x i32], [100 x i32]* %2, i64 0, i64 %98
  %100 = bitcast i32* %99 to <4 x i32>*
  %101 = load <4 x i32>, <4 x i32>* %100, align 4, !tbaa !5
  %102 = getelementptr inbounds i32, i32* %99, i64 4
  %103 = bitcast i32* %102 to <4 x i32>*
  %104 = load <4 x i32>, <4 x i32>* %103, align 4, !tbaa !5
  %105 = icmp sgt <4 x i32> %101, %96
  %106 = icmp sgt <4 x i32> %104, %97
  %107 = select <4 x i1> %105, <4 x i32> %101, <4 x i32> %96
  %108 = select <4 x i1> %106, <4 x i32> %104, <4 x i32> %97
  %109 = add nuw i64 %83, 16
  %110 = add i64 %86, -2
  %111 = icmp eq i64 %110, 0
  br i1 %111, label %112, label %82, !llvm.loop !13

112:                                              ; preds = %82
  %113 = or i64 %109, 1
  br label %114

114:                                              ; preds = %112, %70
  %115 = phi <4 x i32> [ undef, %70 ], [ %107, %112 ]
  %116 = phi <4 x i32> [ undef, %70 ], [ %108, %112 ]
  %117 = phi i64 [ 1, %70 ], [ %113, %112 ]
  %118 = phi <4 x i32> [ %74, %70 ], [ %107, %112 ]
  %119 = phi <4 x i32> [ %74, %70 ], [ %108, %112 ]
  %120 = icmp eq i64 %78, 0
  br i1 %120, label %132, label %121

121:                                              ; preds = %114
  %122 = getelementptr inbounds [100 x i32], [100 x i32]* %2, i64 0, i64 %117
  %123 = bitcast i32* %122 to <4 x i32>*
  %124 = load <4 x i32>, <4 x i32>* %123, align 4, !tbaa !5
  %125 = getelementptr inbounds i32, i32* %122, i64 4
  %126 = bitcast i32* %125 to <4 x i32>*
  %127 = load <4 x i32>, <4 x i32>* %126, align 4, !tbaa !5
  %128 = icmp sgt <4 x i32> %127, %119
  %129 = select <4 x i1> %128, <4 x i32> %127, <4 x i32> %119
  %130 = icmp sgt <4 x i32> %124, %118
  %131 = select <4 x i1> %130, <4 x i32> %124, <4 x i32> %118
  br label %132

132:                                              ; preds = %114, %121
  %133 = phi <4 x i32> [ %115, %114 ], [ %131, %121 ]
  %134 = phi <4 x i32> [ %116, %114 ], [ %129, %121 ]
  %135 = icmp sgt <4 x i32> %133, %134
  %136 = select <4 x i1> %135, <4 x i32> %133, <4 x i32> %134
  %137 = call i32 @llvm.vector.reduce.smax.v4i32(<4 x i32> %136)
  %138 = icmp eq i64 %34, %71
  br i1 %138, label %151, label %139

139:                                              ; preds = %67, %132
  %140 = phi i64 [ 1, %67 ], [ %72, %132 ]
  %141 = phi i32 [ %66, %67 ], [ %137, %132 ]
  br label %142

142:                                              ; preds = %139, %142
  %143 = phi i64 [ %149, %142 ], [ %140, %139 ]
  %144 = phi i32 [ %148, %142 ], [ %141, %139 ]
  %145 = getelementptr inbounds [100 x i32], [100 x i32]* %2, i64 0, i64 %143
  %146 = load i32, i32* %145, align 4, !tbaa !5
  %147 = icmp sgt i32 %146, %144
  %148 = select i1 %147, i32 %146, i32 %144
  %149 = add nuw nsw i64 %143, 1
  %150 = icmp eq i64 %149, %68
  br i1 %150, label %151, label %142, !llvm.loop !15

151:                                              ; preds = %142, %132, %10, %29, %64
  %152 = phi i32 [ %66, %64 ], [ %31, %29 ], [ %15, %10 ], [ %137, %132 ], [ %148, %142 ]
  %153 = call i32 (i8*, ...) @printf(i8* nonnull dereferenceable(1) getelementptr inbounds ([4 x i8], [4 x i8]* @.str.1, i64 0, i64 0), i32 %152)
  call void @llvm.lifetime.end.p0i8(i64 4, i8* nonnull %6) #5
  call void @llvm.lifetime.end.p0i8(i64 400, i8* nonnull %5) #5
  call void @llvm.lifetime.end.p0i8(i64 400, i8* nonnull %4) #5
  ret i32 0
}

; Function Attrs: argmemonly mustprogress nofree nosync nounwind willreturn
declare void @llvm.lifetime.start.p0i8(i64 immarg, i8* nocapture) #1

; Function Attrs: argmemonly mustprogress nofree nounwind willreturn writeonly
declare void @llvm.memset.p0i8.i64(i8* nocapture writeonly, i8, i64, i1 immarg) #2

; Function Attrs: nofree nounwind
declare noundef i32 @__isoc99_scanf(i8* nocapture noundef readonly, ...) local_unnamed_addr #3

; Function Attrs: nofree nounwind
declare noundef i32 @printf(i8* nocapture noundef readonly, ...) local_unnamed_addr #3

; Function Attrs: argmemonly mustprogress nofree nosync nounwind willreturn
declare void @llvm.lifetime.end.p0i8(i64 immarg, i8* nocapture) #1

; Function Attrs: nofree nosync nounwind readnone willreturn
declare i32 @llvm.vector.reduce.smax.v4i32(<4 x i32>) #4


!llvm.module.flags = !{!0, !1, !2, !3}
!llvm.ident = !{!4}

!0 = !{i32 1, !"wchar_size", i32 4}
!1 = !{i32 7, !"PIC Level", i32 2}
!2 = !{i32 7, !"PIE Level", i32 2}
!3 = !{i32 7, !"uwtable", i32 1}
!4 = !{!"clang version 13.0.0"}
!5 = !{!6, !6, i64 0}
!6 = !{!"int", !7, i64 0}
!7 = !{!"omnipotent char", !8, i64 0}
!8 = !{!"Simple C/C++ TBAA"}
!9 = distinct !{!9, !10}
!10 = !{!"llvm.loop.mustprogress"}
!11 = distinct !{!11, !10}
!12 = distinct !{!12, !10}
!13 = distinct !{!13, !10, !14}
!14 = !{!"llvm.loop.isvectorized", i32 1}
!15 = distinct !{!15, !10, !16, !14}
!16 = !{!"llvm.loop.unroll.runtime.disable"}
